; Function Attrs: mustprogress uwtable
define hidden noundef i32 @_ZN11cost_parser7add_varE6symbol(ptr noundef nonnull align 8 dereferenceable(112) %0, ptr %1) local_unnamed_addr #3 align 2 {
  %3 = alloca %class.symbol, align 8
  store ptr %1, ptr %3, align 8
  %4 = getelementptr inbounds nuw i8, ptr %0, i64 80
  %5 = load ptr, ptr %4, align 8, !tbaa !27
  %6 = tail call noundef ptr @_ZN11ast_manager7mk_sortEiijPK9parameter(ptr noundef nonnull align 8 dereferenceable(976) %5, i32 noundef 5, i32 noundef 0, i32 noundef 0, ptr noundef null)
  %7 = getelementptr inbounds nuw i8, ptr %0, i64 104
  %8 = load ptr, ptr %7, align 8, !tbaa !10
  %9 = icmp eq ptr %8, null
  br i1 %9, label %_ZNK15ref_vector_coreI3var19ref_manager_wrapperIS0_11ast_managerEE4sizeEv.exit, label %10

10:                                               ; preds = %2
  %11 = getelementptr inbounds i8, ptr %8, i64 -4
  %12 = load i32, ptr %11, align 4, !tbaa !14
  br label %_ZNK15ref_vector_coreI3var19ref_manager_wrapperIS0_11ast_managerEE4sizeEv.exit

_ZNK15ref_vector_coreI3var19ref_manager_wrapperIS0_11ast_managerEE4sizeEv.exit: ; preds = %2, %10
  %.0.i.i = phi i32 [ %12, %10 ], [ 0, %2 ]
  %13 = getelementptr inbounds nuw i8, ptr %0, i64 8
  %14 = load ptr, ptr %13, align 8, !tbaa !28
  %15 = tail call noundef ptr @_ZN11ast_manager6mk_varEjP4sort(ptr noundef nonnull align 8 dereferenceable(976) %14, i32 noundef %.0.i.i, ptr noundef %6)
  call void @_ZN13simple_parser7add_varERK6symbolP3var(ptr noundef nonnull align 8 dereferenceable(80) %0, ptr noundef nonnull align 8 dereferenceable(8) %3, ptr noundef %15)
  %.not.i.i.i.i = icmp eq ptr %15, null
  br i1 %.not.i.i.i.i, label %_ZN15ref_vector_coreI3var19ref_manager_wrapperIS0_11ast_managerEE7inc_refEPS0_.exit.i, label %16

16:                                               ; preds = %_ZNK15ref_vector_coreI3var19ref_manager_wrapperIS0_11ast_managerEE4sizeEv.exit
  %17 = getelementptr inbounds nuw i8, ptr %15, i64 8
  %18 = load i32, ptr %17, align 4, !tbaa !20
  %19 = add i32 %18, 1
  store i32 %19, ptr %17, align 4, !tbaa !20
  br label %_ZN15ref_vector_coreI3var19ref_manager_wrapperIS0_11ast_managerEE7inc_refEPS0_.exit.i

_ZN15ref_vector_coreI3var19ref_manager_wrapperIS0_11ast_managerEE7inc_refEPS0_.exit.i: ; preds = %16, %_ZNK15ref_vector_coreI3var19ref_manager_wrapperIS0_11ast_managerEE4sizeEv.exit
  %20 = load ptr, ptr %7, align 8, !tbaa !10
  %21 = icmp eq ptr %20, null
  br i1 %21, label %28, label %22

22:                                               ; preds = %_ZN15ref_vector_coreI3var19ref_manager_wrapperIS0_11ast_managerEE7inc_refEPS0_.exit.i
  %23 = getelementptr inbounds i8, ptr %20, i64 -4
  %24 = load i32, ptr %23, align 4, !tbaa !14
  %25 = getelementptr inbounds i8, ptr %20, i64 -8
  %26 = load i32, ptr %25, align 4, !tbaa !14
  %27 = icmp eq i32 %24, %26
  br i1 %27, label %28, label %_ZN15ref_vector_coreI3var19ref_manager_wrapperIS0_11ast_managerEE9push_backEPS0_.exit

28:                                               ; preds = %22, %_ZN15ref_vector_coreI3var19ref_manager_wrapperIS0_11ast_managerEE7inc_refEPS0_.exit.i
  call void @_ZN6vectorIP3varLb0EjE13expand_vectorEv(ptr noundef nonnull align 8 dereferenceable(8) %7)
  %.pre.i.i = load ptr, ptr %7, align 8, !tbaa !10
  %.phi.trans.insert.i.i = getelementptr inbounds i8, ptr %.pre.i.i, i64 -4
  %.pre2.i.i = load i32, ptr %.phi.trans.insert.i.i, align 4, !tbaa !14
  br label %_ZN15ref_vector_coreI3var19ref_manager_wrapperIS0_11ast_managerEE9push_backEPS0_.exit

_ZN15ref_vector_coreI3var19ref_manager_wrapperIS0_11ast_managerEE9push_backEPS0_.exit: ; preds = %22, %28
  %29 = phi i32 [ %.pre2.i.i, %28 ], [ %24, %22 ]
  %30 = phi ptr [ %.pre.i.i, %28 ], [ %20, %22 ]
  %31 = getelementptr inbounds i8, ptr %30, i64 -4
  %32 = zext i32 %29 to i64
  %33 = getelementptr inbounds nuw ptr, ptr %30, i64 %32
  store ptr %15, ptr %33, align 8, !tbaa !16
  %34 = add i32 %29, 1
  store i32 %34, ptr %31, align 4, !tbaa !14
  ret i32 %.0.i.i
}